; Function Attrs: mustprogress nofree norecurse nosync nounwind willreturn memory(argmem: readwrite) uwtable
define void @_ZN5boost4urls6detail8url_impl10apply_fragENS0_15pct_string_viewE(ptr nocapture noundef nonnull align 8 dereferenceable(171) %0, ptr nocapture noundef readonly byval(%"class.boost::urls::pct_string_view") align 8 %1) local_unnamed_addr #6 align 2 {
_ZN5boost4urls6detail8url_impl8set_sizeEim.exit:
  %2 = getelementptr inbounds nuw i8, ptr %1, i64 8
  %3 = load i64, ptr %2, align 8, !tbaa !16
  %4 = getelementptr inbounds i8, ptr %0, i64 56
  %5 = load i64, ptr %4, align 8, !tbaa !13
  %.neg.i = add i64 %3, 1
  %6 = getelementptr inbounds i8, ptr %0, i64 64
  %7 = add i64 %.neg.i, %5
  store i64 %7, ptr %6, align 8, !tbaa !13
  %8 = getelementptr inbounds nuw i8, ptr %1, i64 16
  %9 = load i64, ptr %8, align 8, !tbaa !18
  %10 = getelementptr inbounds i8, ptr %0, i64 120
  store i64 %9, ptr %10, align 8, !tbaa !13
  ret void
}